target datalayout = "e-m:e-p270:32:32-p271:32:32-p272:64:64-i64:64-i128:128-f80:128-n8:16:32:64-S128"
target triple = "x86_64-pc-linux-gnu"

%struct.Vec_Int_t_ = type { i32, i32, ptr }
%struct.Mf_Man_t_ = type { ptr, ptr, ptr, ptr, %struct.Vec_Ptr_t_, ptr, %struct.Vec_Int_t_, %struct.Vec_Int_t_, %struct.Vec_Int_t_, i32, i32, i32, i64, [4 x double], [11 x i32] }
%struct.Vec_Ptr_t_ = type { i32, i32, ptr }
%struct.Jf_Par_t_ = type { i32, i32, i32, i32, i32, i32, i32, i32, i32, i32, i32, i32, i32, i32, i32, i32, i32, i32, i32, i32, i32, i32, i32, i32, i32, i32, i32, i32, i32, i32, i32, i32, i32, i32, i32, i32, i32, i32, i32, i32, i64, i64, i64, i64, i64, i64, i64, i64, i32, float, float, float, float, ptr, ptr }
%struct.Mf_Obj_t_ = type { i32, float, float, i32 }

; Function Attrs: inlinehint nounwind uwtable
define internal ptr @Vec_PtrEntry(ptr noundef %0, i32 noundef %1) #2 {
  %3 = alloca ptr, align 8
  %4 = alloca i32, align 4
  store ptr %0, ptr %3, align 8, !tbaa !222
  store i32 %1, ptr %4, align 4, !tbaa !8
  %5 = load ptr, ptr %3, align 8, !tbaa !222
  %6 = getelementptr inbounds nuw %struct.Vec_Ptr_t_, ptr %5, i32 0, i32 2
  %7 = load ptr, ptr %6, align 8, !tbaa !224
  %8 = load i32, ptr %4, align 4, !tbaa !8
  %9 = sext i32 %8 to i64
  %10 = getelementptr inbounds ptr, ptr %7, i64 %9
  %11 = load ptr, ptr %10, align 8, !tbaa !229
  ret ptr %11
}

; Function Attrs: inlinehint nounwind uwtable
define internal ptr @Mf_ManCutSet(ptr noundef %0, i32 noundef %1) #2 {
  %3 = alloca ptr, align 8
  %4 = alloca i32, align 4
  store ptr %0, ptr %3, align 8, !tbaa !43
  store i32 %1, ptr %4, align 4, !tbaa !8
  %5 = load ptr, ptr %3, align 8, !tbaa !43
  %6 = getelementptr inbounds nuw %struct.Mf_Man_t_, ptr %5, i32 0, i32 4
  %7 = load i32, ptr %4, align 4, !tbaa !8
  %8 = ashr i32 %7, 16
  %9 = call ptr @Vec_PtrEntry(ptr noundef %6, i32 noundef %8)
  %10 = load i32, ptr %4, align 4, !tbaa !8
  %11 = and i32 %10, 65535
  %12 = sext i32 %11 to i64
  %13 = getelementptr inbounds i32, ptr %9, i64 %12
  ret ptr %13
}

; Function Attrs: inlinehint nounwind uwtable
define internal ptr @Mf_ObjCutSet(ptr noundef %0, i32 noundef %1) #2 {
  %3 = alloca ptr, align 8
  %4 = alloca i32, align 4
  store ptr %0, ptr %3, align 8, !tbaa !43
  store i32 %1, ptr %4, align 4, !tbaa !8
  %5 = load ptr, ptr %3, align 8, !tbaa !43
  %6 = load ptr, ptr %3, align 8, !tbaa !43
  %7 = load i32, ptr %4, align 4, !tbaa !8
  %8 = call ptr @Mf_ManObj(ptr noundef %6, i32 noundef %7)
  %9 = getelementptr inbounds nuw %struct.Mf_Obj_t_, ptr %8, i32 0, i32 0
  %10 = load i32, ptr %9, align 4, !tbaa !151
  %11 = call ptr @Mf_ManCutSet(ptr noundef %5, i32 noundef %10)
  ret ptr %11
}

; Function Attrs: inlinehint nounwind uwtable
define internal void @Vec_IntGrow(ptr noundef %0, i32 noundef %1) #2 {
  %3 = alloca ptr, align 8
  %4 = alloca i32, align 4
  store ptr %0, ptr %3, align 8, !tbaa !39
  store i32 %1, ptr %4, align 4, !tbaa !8
  %5 = load ptr, ptr %3, align 8, !tbaa !39
  %6 = getelementptr inbounds nuw %struct.Vec_Int_t_, ptr %5, i32 0, i32 0
  %7 = load i32, ptr %6, align 8, !tbaa !42
  %8 = load i32, ptr %4, align 4, !tbaa !8
  %9 = icmp sge i32 %7, %8
  br i1 %9, label %10, label %11

10:                                               ; preds = %2
  br label %36

11:                                               ; preds = %2
  %12 = load ptr, ptr %3, align 8, !tbaa !39
  %13 = getelementptr inbounds nuw %struct.Vec_Int_t_, ptr %12, i32 0, i32 2
  %14 = load ptr, ptr %13, align 8, !tbaa !73
  %15 = icmp ne ptr %14, null
  br i1 %15, label %16, label %24

16:                                               ; preds = %11
  %17 = load ptr, ptr %3, align 8, !tbaa !39
  %18 = getelementptr inbounds nuw %struct.Vec_Int_t_, ptr %17, i32 0, i32 2
  %19 = load ptr, ptr %18, align 8, !tbaa !73
  %20 = load i32, ptr %4, align 4, !tbaa !8
  %21 = sext i32 %20 to i64
  %22 = mul i64 4, %21
  %23 = call ptr @realloc(ptr noundef %19, i64 noundef %22) #18
  br label %29

24:                                               ; preds = %11
  %25 = load i32, ptr %4, align 4, !tbaa !8
  %26 = sext i32 %25 to i64
  %27 = mul i64 4, %26
  %28 = call noalias ptr @malloc(i64 noundef %27) #15
  br label %29

29:                                               ; preds = %24, %16
  %30 = phi ptr [ %23, %16 ], [ %28, %24 ]
  %31 = load ptr, ptr %3, align 8, !tbaa !39
  %32 = getelementptr inbounds nuw %struct.Vec_Int_t_, ptr %31, i32 0, i32 2
  store ptr %30, ptr %32, align 8, !tbaa !73
  %33 = load i32, ptr %4, align 4, !tbaa !8
  %34 = load ptr, ptr %3, align 8, !tbaa !39
  %35 = getelementptr inbounds nuw %struct.Vec_Int_t_, ptr %34, i32 0, i32 0
  store i32 %33, ptr %35, align 8, !tbaa !42
  br label %36

36:                                               ; preds = %29, %10
  ret void
}

; Function Attrs: inlinehint nounwind uwtable
define internal i32 @Vec_IntEntry(ptr noundef %0, i32 noundef %1) #2 {
  %3 = alloca ptr, align 8
  %4 = alloca i32, align 4
  store ptr %0, ptr %3, align 8, !tbaa !39
  store i32 %1, ptr %4, align 4, !tbaa !8
  %5 = load ptr, ptr %3, align 8, !tbaa !39
  %6 = getelementptr inbounds nuw %struct.Vec_Int_t_, ptr %5, i32 0, i32 2
  %7 = load ptr, ptr %6, align 8, !tbaa !73
  %8 = load i32, ptr %4, align 4, !tbaa !8
  %9 = sext i32 %8 to i64
  %10 = getelementptr inbounds i32, ptr %7, i64 %9
  %11 = load i32, ptr %10, align 4, !tbaa !8
  ret i32 %11
}

; Function Attrs: inlinehint nounwind uwtable
define internal i32 @Abc_Lit2Var(i32 noundef %0) #2 {
  %2 = alloca i32, align 4
  store i32 %0, ptr %2, align 4, !tbaa !8
  %3 = load i32, ptr %2, align 4, !tbaa !8
  %4 = ashr i32 %3, 1
  ret i32 %4
}

; Function Attrs: inlinehint nounwind uwtable
define internal ptr @Mf_ObjCutBest(ptr noundef %0, i32 noundef %1) #2 {
  %3 = alloca ptr, align 8
  %4 = alloca i32, align 4
  store ptr %0, ptr %3, align 8, !tbaa !43
  store i32 %1, ptr %4, align 4, !tbaa !8
  %5 = load ptr, ptr %3, align 8, !tbaa !43
  %6 = load i32, ptr %4, align 4, !tbaa !8
  %7 = call ptr @Mf_ObjCutSet(ptr noundef %5, i32 noundef %6)
  %8 = getelementptr inbounds i32, ptr %7, i64 1
  ret ptr %8
}

; Function Attrs: inlinehint nounwind uwtable
define internal ptr @Mf_ManObj(ptr noundef %0, i32 noundef %1) #2 {
  %3 = alloca ptr, align 8
  %4 = alloca i32, align 4
  store ptr %0, ptr %3, align 8, !tbaa !43
  store i32 %1, ptr %4, align 4, !tbaa !8
  %5 = load ptr, ptr %3, align 8, !tbaa !43
  %6 = getelementptr inbounds nuw %struct.Mf_Man_t_, ptr %5, i32 0, i32 3
  %7 = load ptr, ptr %6, align 8, !tbaa !152
  %8 = load i32, ptr %4, align 4, !tbaa !8
  %9 = sext i32 %8 to i64
  %10 = getelementptr inbounds %struct.Mf_Obj_t_, ptr %7, i64 %9
  ret ptr %10
}

; Function Attrs: inlinehint nounwind uwtable
define internal i32 @Mf_ObjMapRefInc(ptr noundef %0, i32 noundef %1) #2 {
  %3 = alloca ptr, align 8
  %4 = alloca i32, align 4
  store ptr %0, ptr %3, align 8, !tbaa !43
  store i32 %1, ptr %4, align 4, !tbaa !8
  %5 = load ptr, ptr %3, align 8, !tbaa !43
  %6 = load i32, ptr %4, align 4, !tbaa !8
  %7 = call ptr @Mf_ManObj(ptr noundef %5, i32 noundef %6)
  %8 = getelementptr inbounds nuw %struct.Mf_Obj_t_, ptr %7, i32 0, i32 3
  %9 = load i32, ptr %8, align 4
  %10 = lshr i32 %9, 16
  %11 = add i32 %10, 1
  %12 = load i32, ptr %8, align 4
  %13 = and i32 %11, 65535
  %14 = shl i32 %13, 16
  %15 = and i32 %12, 65535
  %16 = or i32 %15, %14
  store i32 %16, ptr %8, align 4
  ret i32 %10
}

; Function Attrs: inlinehint nounwind uwtable
define internal void @Vec_IntPush(ptr noundef %0, i32 noundef %1) #2 {
  %3 = alloca ptr, align 8
  %4 = alloca i32, align 4
  store ptr %0, ptr %3, align 8, !tbaa !39
  store i32 %1, ptr %4, align 4, !tbaa !8
  %5 = load ptr, ptr %3, align 8, !tbaa !39
  %6 = getelementptr inbounds nuw %struct.Vec_Int_t_, ptr %5, i32 0, i32 1
  %7 = load i32, ptr %6, align 4, !tbaa !40
  %8 = load ptr, ptr %3, align 8, !tbaa !39
  %9 = getelementptr inbounds nuw %struct.Vec_Int_t_, ptr %8, i32 0, i32 0
  %10 = load i32, ptr %9, align 8, !tbaa !42
  %11 = icmp eq i32 %7, %10
  br i1 %11, label %12, label %26

12:                                               ; preds = %2
  %13 = load ptr, ptr %3, align 8, !tbaa !39
  %14 = getelementptr inbounds nuw %struct.Vec_Int_t_, ptr %13, i32 0, i32 0
  %15 = load i32, ptr %14, align 8, !tbaa !42
  %16 = icmp slt i32 %15, 16
  br i1 %16, label %17, label %19

17:                                               ; preds = %12
  %18 = load ptr, ptr %3, align 8, !tbaa !39
  call void @Vec_IntGrow(ptr noundef %18, i32 noundef 16)
  br label %25

19:                                               ; preds = %12
  %20 = load ptr, ptr %3, align 8, !tbaa !39
  %21 = load ptr, ptr %3, align 8, !tbaa !39
  %22 = getelementptr inbounds nuw %struct.Vec_Int_t_, ptr %21, i32 0, i32 0
  %23 = load i32, ptr %22, align 8, !tbaa !42
  %24 = mul nsw i32 2, %23
  call void @Vec_IntGrow(ptr noundef %20, i32 noundef %24)
  br label %25

25:                                               ; preds = %19, %17
  br label %26

26:                                               ; preds = %25, %2
  %27 = load i32, ptr %4, align 4, !tbaa !8
  %28 = load ptr, ptr %3, align 8, !tbaa !39
  %29 = getelementptr inbounds nuw %struct.Vec_Int_t_, ptr %28, i32 0, i32 2
  %30 = load ptr, ptr %29, align 8, !tbaa !73
  %31 = load ptr, ptr %3, align 8, !tbaa !39
  %32 = getelementptr inbounds nuw %struct.Vec_Int_t_, ptr %31, i32 0, i32 1
  %33 = load i32, ptr %32, align 4, !tbaa !40
  %34 = add nsw i32 %33, 1
  store i32 %34, ptr %32, align 4, !tbaa !40
  %35 = sext i32 %33 to i64
  %36 = getelementptr inbounds i32, ptr %30, i64 %35
  store i32 %27, ptr %36, align 4, !tbaa !8
  ret void
}

; Function Attrs: inlinehint nounwind uwtable
define internal i32 @Mf_CutArea(ptr noundef %0, i32 noundef %1, i32 noundef %2) #2 {
  %4 = alloca i32, align 4
  %5 = alloca ptr, align 8
  %6 = alloca i32, align 4
  %7 = alloca i32, align 4
  store ptr %0, ptr %5, align 8, !tbaa !43
  store i32 %1, ptr %6, align 4, !tbaa !8
  store i32 %2, ptr %7, align 4, !tbaa !8
  %8 = load i32, ptr %6, align 4, !tbaa !8
  %9 = icmp slt i32 %8, 2
  br i1 %9, label %10, label %11

10:                                               ; preds = %3
  store i32 0, ptr %4, align 4
  br label %47

11:                                               ; preds = %3
  %12 = load ptr, ptr %5, align 8, !tbaa !43
  %13 = getelementptr inbounds nuw %struct.Mf_Man_t_, ptr %12, i32 0, i32 2
  %14 = load ptr, ptr %13, align 8, !tbaa !68
  %15 = getelementptr inbounds nuw %struct.Jf_Par_t_, ptr %14, i32 0, i32 24
  %16 = load i32, ptr %15, align 8, !tbaa !160
  %17 = icmp ne i32 %16, 0
  br i1 %17, label %25, label %18

18:                                               ; preds = %11
  %19 = load ptr, ptr %5, align 8, !tbaa !43
  %20 = getelementptr inbounds nuw %struct.Mf_Man_t_, ptr %19, i32 0, i32 2
  %21 = load ptr, ptr %20, align 8, !tbaa !68
  %22 = getelementptr inbounds nuw %struct.Jf_Par_t_, ptr %21, i32 0, i32 25
  %23 = load i32, ptr %22, align 4, !tbaa !161
  %24 = icmp ne i32 %23, 0
  br i1 %24, label %25, label %31

25:                                               ; preds = %18, %11
  %26 = load ptr, ptr %5, align 8, !tbaa !43
  %27 = getelementptr inbounds nuw %struct.Mf_Man_t_, ptr %26, i32 0, i32 6
  %28 = load i32, ptr %7, align 4, !tbaa !8
  %29 = call i32 @Abc_Lit2Var(i32 noundef %28)
  %30 = call i32 @Vec_IntEntry(ptr noundef %27, i32 noundef %29)
  store i32 %30, ptr %4, align 4
  br label %47

31:                                               ; preds = %18
  %32 = load ptr, ptr %5, align 8, !tbaa !43
  %33 = getelementptr inbounds nuw %struct.Mf_Man_t_, ptr %32, i32 0, i32 2
  %34 = load ptr, ptr %33, align 8, !tbaa !68
  %35 = getelementptr inbounds nuw %struct.Jf_Par_t_, ptr %34, i32 0, i32 18
  %36 = load i32, ptr %35, align 8, !tbaa !188
  %37 = icmp ne i32 %36, 0
  br i1 %37, label %38, label %46

38:                                               ; preds = %31
  %39 = load i32, ptr %6, align 4, !tbaa !8
  %40 = load ptr, ptr %5, align 8, !tbaa !43
  %41 = getelementptr inbounds nuw %struct.Mf_Man_t_, ptr %40, i32 0, i32 2
  %42 = load ptr, ptr %41, align 8, !tbaa !68
  %43 = getelementptr inbounds nuw %struct.Jf_Par_t_, ptr %42, i32 0, i32 7
  %44 = load i32, ptr %43, align 4, !tbaa !189
  %45 = add nsw i32 %39, %44
  store i32 %45, ptr %4, align 4
  br label %47

46:                                               ; preds = %31
  store i32 1, ptr %4, align 4
  br label %47

47:                                               ; preds = %46, %38, %25, %10
  %48 = load i32, ptr %4, align 4
  ret i32 %48
}

; Function Attrs: inlinehint nounwind uwtable
define internal i32 @Mf_CutFunc(ptr noundef %0) #2 {
  %2 = alloca ptr, align 8
  store ptr %0, ptr %2, align 8, !tbaa !22
  %3 = load ptr, ptr %2, align 8, !tbaa !22
  %4 = getelementptr inbounds i32, ptr %3, i64 0
  %5 = load i32, ptr %4, align 4, !tbaa !8
  %6 = lshr i32 %5, 5
  ret i32 %6
}

; Function Attrs: inlinehint nounwind uwtable
define internal i32 @Mf_CutSize(ptr noundef %0) #2 {
  %2 = alloca ptr, align 8
  store ptr %0, ptr %2, align 8, !tbaa !22
  %3 = load ptr, ptr %2, align 8, !tbaa !22
  %4 = getelementptr inbounds i32, ptr %3, i64 0
  %5 = load i32, ptr %4, align 4, !tbaa !8
  %6 = and i32 %5, 31
  ret i32 %6
}

; Function Attrs: nounwind uwtable
define i32 @Mf_CutRef2_rec(ptr noundef %0, ptr noundef %1, ptr noundef %2, i32 noundef %3) #0 {
  %5 = alloca i32, align 4
  %6 = alloca ptr, align 8
  %7 = alloca ptr, align 8
  %8 = alloca ptr, align 8
  %9 = alloca i32, align 4
  %10 = alloca i32, align 4
  %11 = alloca i32, align 4
  %12 = alloca i32, align 4
  store ptr %0, ptr %6, align 8, !tbaa !43
  store ptr %1, ptr %7, align 8, !tbaa !22
  store ptr %2, ptr %8, align 8, !tbaa !39
  store i32 %3, ptr %9, align 4, !tbaa !8
  call void @llvm.lifetime.start.p0(i64 4, ptr %10) #14
  call void @llvm.lifetime.start.p0(i64 4, ptr %11) #14
  %13 = load ptr, ptr %6, align 8, !tbaa !43
  %14 = load ptr, ptr %7, align 8, !tbaa !22
  %15 = call i32 @Mf_CutSize(ptr noundef %14)
  %16 = load ptr, ptr %7, align 8, !tbaa !22
  %17 = call i32 @Mf_CutFunc(ptr noundef %16)
  %18 = call i32 @Mf_CutArea(ptr noundef %13, i32 noundef %15, i32 noundef %17)
  store i32 %18, ptr %11, align 4, !tbaa !8
  %19 = load i32, ptr %9, align 4, !tbaa !8
  %20 = icmp eq i32 %19, 0
  br i1 %20, label %21, label %23

21:                                               ; preds = %4
  %22 = load i32, ptr %11, align 4, !tbaa !8
  store i32 %22, ptr %5, align 4
  store i32 1, ptr %12, align 4
  br label %76

23:                                               ; preds = %4
  store i32 1, ptr %10, align 4, !tbaa !8
  br label %24

24:                                               ; preds = %71, %23
  %25 = load i32, ptr %10, align 4, !tbaa !8
  %26 = load ptr, ptr %7, align 8, !tbaa !22
  %27 = call i32 @Mf_CutSize(ptr noundef %26)
  %28 = icmp sle i32 %25, %27
  br i1 %28, label %29, label %74

29:                                               ; preds = %24
  %30 = load ptr, ptr %8, align 8, !tbaa !39
  %31 = load ptr, ptr %7, align 8, !tbaa !22
  %32 = load i32, ptr %10, align 4, !tbaa !8
  %33 = sext i32 %32 to i64
  %34 = getelementptr inbounds i32, ptr %31, i64 %33
  %35 = load i32, ptr %34, align 4, !tbaa !8
  call void @Vec_IntPush(ptr noundef %30, i32 noundef %35)
  %36 = load ptr, ptr %6, align 8, !tbaa !43
  %37 = load ptr, ptr %7, align 8, !tbaa !22
  %38 = load i32, ptr %10, align 4, !tbaa !8
  %39 = sext i32 %38 to i64
  %40 = getelementptr inbounds i32, ptr %37, i64 %39
  %41 = load i32, ptr %40, align 4, !tbaa !8
  %42 = call i32 @Mf_ObjMapRefInc(ptr noundef %36, i32 noundef %41)
  %43 = icmp ne i32 %42, 0
  br i1 %43, label %70, label %44

44:                                               ; preds = %29
  %45 = load ptr, ptr %6, align 8, !tbaa !43
  %46 = load ptr, ptr %7, align 8, !tbaa !22
  %47 = load i32, ptr %10, align 4, !tbaa !8
  %48 = sext i32 %47 to i64
  %49 = getelementptr inbounds i32, ptr %46, i64 %48
  %50 = load i32, ptr %49, align 4, !tbaa !8
  %51 = call ptr @Mf_ManObj(ptr noundef %45, i32 noundef %50)
  %52 = getelementptr inbounds nuw %struct.Mf_Obj_t_, ptr %51, i32 0, i32 0
  %53 = load i32, ptr %52, align 4, !tbaa !151
  %54 = icmp ne i32 %53, 0
  br i1 %54, label %55, label %70

55:                                               ; preds = %44
  %56 = load ptr, ptr %6, align 8, !tbaa !43
  %57 = load ptr, ptr %6, align 8, !tbaa !43
  %58 = load ptr, ptr %7, align 8, !tbaa !22
  %59 = load i32, ptr %10, align 4, !tbaa !8
  %60 = sext i32 %59 to i64
  %61 = getelementptr inbounds i32, ptr %58, i64 %60
  %62 = load i32, ptr %61, align 4, !tbaa !8
  %63 = call ptr @Mf_ObjCutBest(ptr noundef %57, i32 noundef %62)
  %64 = load ptr, ptr %8, align 8, !tbaa !39
  %65 = load i32, ptr %9, align 4, !tbaa !8
  %66 = sub nsw i32 %65, 1
  %67 = call i32 @Mf_CutRef2_rec(ptr noundef %56, ptr noundef %63, ptr noundef %64, i32 noundef %66)
  %68 = load i32, ptr %11, align 4, !tbaa !8
  %69 = add nsw i32 %68, %67
  store i32 %69, ptr %11, align 4, !tbaa !8
  br label %70

70:                                               ; preds = %55, %44, %29
  br label %71

71:                                               ; preds = %70
  %72 = load i32, ptr %10, align 4, !tbaa !8
  %73 = add nsw i32 %72, 1
  store i32 %73, ptr %10, align 4, !tbaa !8
  br label %24, !llvm.loop !249

74:                                               ; preds = %24
  %75 = load i32, ptr %11, align 4, !tbaa !8
  store i32 %75, ptr %5, align 4
  store i32 1, ptr %12, align 4
  br label %76

76:                                               ; preds = %74, %21
  call void @llvm.lifetime.end.p0(i64 4, ptr %11) #14
  call void @llvm.lifetime.end.p0(i64 4, ptr %10) #14
  %77 = load i32, ptr %5, align 4
  ret i32 %77
}